target datalayout = "e-m:e-p270:32:32-p271:32:32-p272:64:64-i64:64-i128:128-f80:128-n8:16:32:64-S128"
target triple = "x86_64-pc-linux-gnu"

; Function Attrs: null_pointer_is_valid sspstrong uwtable
define internal zeroext i1 @packet_is_cigi(ptr noundef %0) #0 {
  %2 = alloca i1, align 1
  %3 = alloca ptr, align 8
  %4 = alloca i16, align 2
  %5 = alloca i16, align 2
  %6 = alloca i8, align 1
  %7 = alloca i8, align 1
  %8 = alloca i16, align 2
  %9 = alloca i32, align 4
  store ptr %0, ptr %3, align 8
  call void @llvm.lifetime.start.p0(i64 2, ptr %4) #5
  call void @llvm.lifetime.start.p0(i64 2, ptr %5) #5
  call void @llvm.lifetime.start.p0(i64 1, ptr %6) #5
  call void @llvm.lifetime.start.p0(i64 1, ptr %7) #5
  call void @llvm.lifetime.start.p0(i64 2, ptr %8) #5
  %10 = load ptr, ptr %3, align 8
  %11 = call i32 @tvb_captured_length(ptr noundef %10)
  %12 = icmp ult i32 %11, 3
  br i1 %12, label %13, label %14

13:                                               ; preds = %1
  store i1 false, ptr %2, align 1
  store i32 1, ptr %9, align 4
  br label %219

14:                                               ; preds = %1
  %15 = load ptr, ptr %3, align 8
  %16 = call zeroext i8 @tvb_get_uint8(ptr noundef %15, i32 noundef 0)
  %17 = zext i8 %16 to i16
  store i16 %17, ptr %4, align 2
  %18 = load ptr, ptr %3, align 8
  %19 = call zeroext i8 @tvb_get_uint8(ptr noundef %18, i32 noundef 1)
  %20 = zext i8 %19 to i16
  store i16 %20, ptr %5, align 2
  %21 = load ptr, ptr %3, align 8
  %22 = call zeroext i8 @tvb_get_uint8(ptr noundef %21, i32 noundef 2)
  store i8 %22, ptr %6, align 1
  %23 = load i8, ptr %6, align 1
  %24 = zext i8 %23 to i32
  switch i32 %24, label %210 [
    i32 1, label %25
    i32 2, label %57
    i32 3, label %89
    i32 0, label %149
    i32 255, label %149
  ]

25:                                               ; preds = %14
  %26 = load i16, ptr %4, align 2
  %27 = zext i16 %26 to i32
  switch i32 %27, label %55 [
    i32 1, label %28
    i32 101, label %49
  ]

28:                                               ; preds = %25
  %29 = load i16, ptr %5, align 2
  %30 = zext i16 %29 to i32
  %31 = icmp ne i32 %30, 16
  br i1 %31, label %32, label %33

32:                                               ; preds = %28
  store i1 false, ptr %2, align 1
  store i32 1, ptr %9, align 4
  br label %219

33:                                               ; preds = %28
  %34 = load ptr, ptr %3, align 8
  %35 = call zeroext i1 @tvb_bytes_exist(ptr noundef %34, i32 noundef 4, i32 noundef 1)
  br i1 %35, label %37, label %36

36:                                               ; preds = %33
  store i1 false, ptr %2, align 1
  store i32 1, ptr %9, align 4
  br label %219

37:                                               ; preds = %33
  %38 = load ptr, ptr %3, align 8
  %39 = call zeroext i8 @tvb_get_uint8(ptr noundef %38, i32 noundef 4)
  %40 = zext i8 %39 to i32
  %41 = and i32 %40, 192
  %42 = ashr i32 %41, 6
  %43 = trunc i32 %42 to i8
  store i8 %43, ptr %7, align 1
  %44 = load i8, ptr %7, align 1
  %45 = zext i8 %44 to i32
  %46 = icmp sgt i32 %45, 2
  br i1 %46, label %47, label %48

47:                                               ; preds = %37
  store i1 false, ptr %2, align 1
  store i32 1, ptr %9, align 4
  br label %219

48:                                               ; preds = %37
  br label %56

49:                                               ; preds = %25
  %50 = load i16, ptr %5, align 2
  %51 = zext i16 %50 to i32
  %52 = icmp ne i32 %51, 12
  br i1 %52, label %53, label %54

53:                                               ; preds = %49
  store i1 false, ptr %2, align 1
  store i32 1, ptr %9, align 4
  br label %219

54:                                               ; preds = %49
  br label %56

55:                                               ; preds = %25
  store i1 false, ptr %2, align 1
  store i32 1, ptr %9, align 4
  br label %219

56:                                               ; preds = %54, %48
  br label %211

57:                                               ; preds = %14
  %58 = load i16, ptr %4, align 2
  %59 = zext i16 %58 to i32
  switch i32 %59, label %87 [
    i32 1, label %60
    i32 101, label %81
  ]

60:                                               ; preds = %57
  %61 = load i16, ptr %5, align 2
  %62 = zext i16 %61 to i32
  %63 = icmp ne i32 %62, 16
  br i1 %63, label %64, label %65

64:                                               ; preds = %60
  store i1 false, ptr %2, align 1
  store i32 1, ptr %9, align 4
  br label %219

65:                                               ; preds = %60
  %66 = load ptr, ptr %3, align 8
  %67 = call zeroext i1 @tvb_bytes_exist(ptr noundef %66, i32 noundef 4, i32 noundef 1)
  br i1 %67, label %69, label %68

68:                                               ; preds = %65
  store i1 false, ptr %2, align 1
  store i32 1, ptr %9, align 4
  br label %219

69:                                               ; preds = %65
  %70 = load ptr, ptr %3, align 8
  %71 = call zeroext i8 @tvb_get_uint8(ptr noundef %70, i32 noundef 4)
  %72 = zext i8 %71 to i32
  %73 = and i32 %72, 192
  %74 = ashr i32 %73, 6
  %75 = trunc i32 %74 to i8
  store i8 %75, ptr %7, align 1
  %76 = load i8, ptr %7, align 1
  %77 = zext i8 %76 to i32
  %78 = icmp sgt i32 %77, 2
  br i1 %78, label %79, label %80

79:                                               ; preds = %69
  store i1 false, ptr %2, align 1
  store i32 1, ptr %9, align 4
  br label %219

80:                                               ; preds = %69
  br label %88

81:                                               ; preds = %57
  %82 = load i16, ptr %5, align 2
  %83 = zext i16 %82 to i32
  %84 = icmp ne i32 %83, 16
  br i1 %84, label %85, label %86

85:                                               ; preds = %81
  store i1 false, ptr %2, align 1
  store i32 1, ptr %9, align 4
  br label %219

86:                                               ; preds = %81
  br label %88

87:                                               ; preds = %57
  store i1 false, ptr %2, align 1
  store i32 1, ptr %9, align 4
  br label %219

88:                                               ; preds = %86, %80
  br label %211

89:                                               ; preds = %14
  %90 = load ptr, ptr %3, align 8
  %91 = call zeroext i1 @tvb_bytes_exist(ptr noundef %90, i32 noundef 6, i32 noundef 1)
  br i1 %91, label %93, label %92

92:                                               ; preds = %89
  store i1 false, ptr %2, align 1
  store i32 1, ptr %9, align 4
  br label %219

93:                                               ; preds = %89
  %94 = load i16, ptr %4, align 2
  %95 = zext i16 %94 to i32
  switch i32 %95, label %136 [
    i32 1, label %96
    i32 101, label %121
  ]

96:                                               ; preds = %93
  %97 = load i16, ptr %5, align 2
  %98 = zext i16 %97 to i32
  %99 = icmp ne i32 %98, 16
  br i1 %99, label %100, label %106

100:                                              ; preds = %96
  %101 = load i16, ptr %5, align 2
  %102 = zext i16 %101 to i32
  %103 = icmp ne i32 %102, 24
  br i1 %103, label %104, label %105

104:                                              ; preds = %100
  store i1 false, ptr %2, align 1
  store i32 1, ptr %9, align 4
  br label %219

105:                                              ; preds = %100
  br label %106

106:                                              ; preds = %105, %96
  %107 = load ptr, ptr %3, align 8
  %108 = call zeroext i1 @tvb_bytes_exist(ptr noundef %107, i32 noundef 4, i32 noundef 2)
  br i1 %108, label %110, label %109

109:                                              ; preds = %106
  store i1 false, ptr %2, align 1
  store i32 1, ptr %9, align 4
  br label %219

110:                                              ; preds = %106
  %111 = load ptr, ptr %3, align 8
  %112 = call zeroext i8 @tvb_get_uint8(ptr noundef %111, i32 noundef 4)
  %113 = zext i8 %112 to i32
  %114 = and i32 %113, 3
  %115 = trunc i32 %114 to i8
  store i8 %115, ptr %7, align 1
  %116 = load i8, ptr %7, align 1
  %117 = zext i8 %116 to i32
  %118 = icmp sgt i32 %117, 2
  br i1 %118, label %119, label %120

119:                                              ; preds = %110
  store i1 false, ptr %2, align 1
  store i32 1, ptr %9, align 4
  br label %219

120:                                              ; preds = %110
  br label %137

121:                                              ; preds = %93
  %122 = load i16, ptr %5, align 2
  %123 = zext i16 %122 to i32
  %124 = icmp ne i32 %123, 16
  br i1 %124, label %125, label %131

125:                                              ; preds = %121
  %126 = load i16, ptr %5, align 2
  %127 = zext i16 %126 to i32
  %128 = icmp ne i32 %127, 24
  br i1 %128, label %129, label %130

129:                                              ; preds = %125
  store i1 false, ptr %2, align 1
  store i32 1, ptr %9, align 4
  br label %219

130:                                              ; preds = %125
  br label %131

131:                                              ; preds = %130, %121
  %132 = load ptr, ptr %3, align 8
  %133 = call zeroext i1 @tvb_bytes_exist(ptr noundef %132, i32 noundef 5, i32 noundef 1)
  br i1 %133, label %135, label %134

134:                                              ; preds = %131
  store i1 false, ptr %2, align 1
  store i32 1, ptr %9, align 4
  br label %219

135:                                              ; preds = %131
  br label %137

136:                                              ; preds = %93
  store i1 false, ptr %2, align 1
  store i32 1, ptr %9, align 4
  br label %219

137:                                              ; preds = %135, %120
  %138 = load ptr, ptr %3, align 8
  %139 = call zeroext i16 @tvb_get_ntohs(ptr noundef %138, i32 noundef 6)
  store i16 %139, ptr %8, align 2
  %140 = load i16, ptr %8, align 2
  %141 = zext i16 %140 to i32
  %142 = icmp ne i32 %141, 32768
  br i1 %142, label %143, label %148

143:                                              ; preds = %137
  %144 = load i16, ptr %8, align 2
  %145 = zext i16 %144 to i32
  %146 = icmp ne i32 %145, 128
  br i1 %146, label %147, label %148

147:                                              ; preds = %143
  store i1 false, ptr %2, align 1
  store i32 1, ptr %9, align 4
  br label %219

148:                                              ; preds = %143, %137
  br label %211

149:                                              ; preds = %14, %14
  %150 = load ptr, ptr %3, align 8
  %151 = call zeroext i1 @tvb_bytes_exist(ptr noundef %150, i32 noundef 4, i32 noundef 1)
  br i1 %151, label %153, label %152

152:                                              ; preds = %149
  store i1 false, ptr %2, align 1
  store i32 1, ptr %9, align 4
  br label %219

153:                                              ; preds = %149
  %154 = load ptr, ptr %3, align 8
  %155 = call zeroext i8 @tvb_get_uint8(ptr noundef %154, i32 noundef 4)
  %156 = zext i8 %155 to i32
  %157 = icmp ne i32 %156, 4
  br i1 %157, label %158, label %159

158:                                              ; preds = %153
  store i1 false, ptr %2, align 1
  store i32 1, ptr %9, align 4
  br label %219

159:                                              ; preds = %153
  %160 = load i16, ptr %4, align 2
  %161 = zext i16 %160 to i32
  %162 = icmp eq i32 %161, 0
  br i1 %162, label %163, label %168

163:                                              ; preds = %159
  %164 = load ptr, ptr %3, align 8
  %165 = call zeroext i16 @tvb_get_uint16(ptr noundef %164, i32 noundef 0, i32 noundef 0)
  store i16 %165, ptr %5, align 2
  %166 = load ptr, ptr %3, align 8
  %167 = call zeroext i16 @tvb_get_uint16(ptr noundef %166, i32 noundef 2, i32 noundef 0)
  store i16 %167, ptr %4, align 2
  br label %179

168:                                              ; preds = %159
  %169 = load i16, ptr %5, align 2
  %170 = zext i16 %169 to i32
  %171 = icmp eq i32 %170, 0
  br i1 %171, label %172, label %177

172:                                              ; preds = %168
  %173 = load ptr, ptr %3, align 8
  %174 = call zeroext i16 @tvb_get_uint16(ptr noundef %173, i32 noundef 0, i32 noundef -2147483648)
  store i16 %174, ptr %5, align 2
  %175 = load ptr, ptr %3, align 8
  %176 = call zeroext i16 @tvb_get_uint16(ptr noundef %175, i32 noundef 2, i32 noundef -2147483648)
  store i16 %176, ptr %4, align 2
  br label %178

177:                                              ; preds = %168
  store i1 false, ptr %2, align 1
  store i32 1, ptr %9, align 4
  br label %219

178:                                              ; preds = %172
  br label %179

179:                                              ; preds = %178, %163
  %180 = load i16, ptr %4, align 2
  %181 = zext i16 %180 to i32
  switch i32 %181, label %208 [
    i32 0, label %182
    i32 65535, label %202
  ]

182:                                              ; preds = %179
  %183 = load i16, ptr %5, align 2
  %184 = zext i16 %183 to i32
  %185 = icmp ne i32 %184, 24
  br i1 %185, label %186, label %187

186:                                              ; preds = %182
  store i1 false, ptr %2, align 1
  store i32 1, ptr %9, align 4
  br label %219

187:                                              ; preds = %182
  %188 = load ptr, ptr %3, align 8
  %189 = call zeroext i1 @tvb_bytes_exist(ptr noundef %188, i32 noundef 7, i32 noundef 2)
  br i1 %189, label %191, label %190

190:                                              ; preds = %187
  store i1 false, ptr %2, align 1
  store i32 1, ptr %9, align 4
  br label %219

191:                                              ; preds = %187
  %192 = load ptr, ptr %3, align 8
  %193 = call zeroext i8 @tvb_get_uint8(ptr noundef %192, i32 noundef 7)
  %194 = zext i8 %193 to i32
  %195 = and i32 %194, 3
  %196 = trunc i32 %195 to i8
  store i8 %196, ptr %7, align 1
  %197 = load i8, ptr %7, align 1
  %198 = zext i8 %197 to i32
  %199 = icmp sgt i32 %198, 2
  br i1 %199, label %200, label %201

200:                                              ; preds = %191
  store i1 false, ptr %2, align 1
  store i32 1, ptr %9, align 4
  br label %219

201:                                              ; preds = %191
  br label %209

202:                                              ; preds = %179
  %203 = load i16, ptr %5, align 2
  %204 = zext i16 %203 to i32
  %205 = icmp ne i32 %204, 24
  br i1 %205, label %206, label %207

206:                                              ; preds = %202
  store i1 false, ptr %2, align 1
  store i32 1, ptr %9, align 4
  br label %219

207:                                              ; preds = %202
  br label %209

208:                                              ; preds = %179
  store i1 false, ptr %2, align 1
  store i32 1, ptr %9, align 4
  br label %219

209:                                              ; preds = %207, %201
  br label %211

210:                                              ; preds = %14
  store i1 false, ptr %2, align 1
  store i32 1, ptr %9, align 4
  br label %219

211:                                              ; preds = %209, %148, %88, %56
  %212 = load i16, ptr %5, align 2
  %213 = zext i16 %212 to i32
  %214 = load ptr, ptr %3, align 8
  %215 = call i32 @tvb_reported_length(ptr noundef %214)
  %216 = icmp ugt i32 %213, %215
  br i1 %216, label %217, label %218

217:                                              ; preds = %211
  store i1 false, ptr %2, align 1
  store i32 1, ptr %9, align 4
  br label %219

218:                                              ; preds = %211
  store i1 true, ptr %2, align 1
  store i32 1, ptr %9, align 4
  br label %219

219:                                              ; preds = %218, %217, %210, %208, %206, %200, %190, %186, %177, %158, %152, %147, %136, %134, %129, %119, %109, %104, %92, %87, %85, %79, %68, %64, %55, %53, %47, %36, %32, %13
  call void @llvm.lifetime.end.p0(i64 2, ptr %8) #5
  call void @llvm.lifetime.end.p0(i64 1, ptr %7) #5
  call void @llvm.lifetime.end.p0(i64 1, ptr %6) #5
  call void @llvm.lifetime.end.p0(i64 2, ptr %5) #5
  call void @llvm.lifetime.end.p0(i64 2, ptr %4) #5
  %220 = load i1, ptr %2, align 1
  ret i1 %220
}