; Function Attrs: null_pointer_is_valid sspstrong uwtable
define internal fastcc zeroext i1 @packet_is_cigi(ptr noundef %0) unnamed_addr #0 {
  %2 = tail call i32 @tvb_captured_length(ptr noundef %0)
  %3 = icmp ult i32 %2, 3
  br i1 %3, label %64, label %4

4:                                                ; preds = %1
  %5 = tail call zeroext i8 @tvb_get_uint8(ptr noundef %0, i32 noundef 0)
  %6 = tail call zeroext i8 @tvb_get_uint8(ptr noundef %0, i32 noundef 1)
  %7 = tail call zeroext i8 @tvb_get_uint8(ptr noundef %0, i32 noundef 2)
  switch i8 %7, label %64 [
    i8 1, label %8
    i8 2, label %16
    i8 3, label %24
    i8 0, label %41
    i8 -1, label %41
  ]

8:                                                ; preds = %4
  switch i8 %5, label %64 [
    i8 1, label %9
    i8 101, label %15
  ]

9:                                                ; preds = %8
  %.not61 = icmp eq i8 %6, 16
  br i1 %.not61, label %10, label %64

10:                                               ; preds = %9
  %11 = tail call zeroext i1 @tvb_bytes_exist(ptr noundef %0, i32 noundef 4, i32 noundef 1)
  br i1 %11, label %12, label %64

12:                                               ; preds = %10
  %13 = tail call zeroext i8 @tvb_get_uint8(ptr noundef %0, i32 noundef 4)
  %14 = icmp ugt i8 %13, -65
  br i1 %14, label %64, label %60

15:                                               ; preds = %8
  %.not60 = icmp eq i8 %6, 12
  br i1 %.not60, label %60, label %64

16:                                               ; preds = %4
  switch i8 %5, label %64 [
    i8 1, label %17
    i8 101, label %23
  ]

17:                                               ; preds = %16
  %.not59 = icmp eq i8 %6, 16
  br i1 %.not59, label %18, label %64

18:                                               ; preds = %17
  %19 = tail call zeroext i1 @tvb_bytes_exist(ptr noundef %0, i32 noundef 4, i32 noundef 1)
  br i1 %19, label %20, label %64

20:                                               ; preds = %18
  %21 = tail call zeroext i8 @tvb_get_uint8(ptr noundef %0, i32 noundef 4)
  %22 = icmp ugt i8 %21, -65
  br i1 %22, label %64, label %60

23:                                               ; preds = %16
  %.not58 = icmp eq i8 %6, 16
  br i1 %.not58, label %60, label %64

24:                                               ; preds = %4
  %25 = tail call zeroext i1 @tvb_bytes_exist(ptr noundef %0, i32 noundef 6, i32 noundef 1)
  br i1 %25, label %26, label %64

26:                                               ; preds = %24
  switch i8 %5, label %64 [
    i8 1, label %27
    i8 101, label %35
  ]

27:                                               ; preds = %26
  %28 = and i8 %6, -9
  %or.cond5.not = icmp eq i8 %28, 16
  br i1 %or.cond5.not, label %29, label %64

29:                                               ; preds = %27
  %30 = tail call zeroext i1 @tvb_bytes_exist(ptr noundef %0, i32 noundef 4, i32 noundef 2)
  br i1 %30, label %31, label %64

31:                                               ; preds = %29
  %32 = tail call zeroext i8 @tvb_get_uint8(ptr noundef %0, i32 noundef 4)
  %33 = and i8 %32, 3
  %34 = icmp eq i8 %33, 3
  br i1 %34, label %64, label %39

35:                                               ; preds = %26
  %36 = and i8 %6, -9
  %or.cond8.not = icmp eq i8 %36, 16
  br i1 %or.cond8.not, label %37, label %64

37:                                               ; preds = %35
  %38 = tail call zeroext i1 @tvb_bytes_exist(ptr noundef %0, i32 noundef 5, i32 noundef 1)
  br i1 %38, label %39, label %64

39:                                               ; preds = %37, %31
  %40 = tail call zeroext i16 @tvb_get_ntohs(ptr noundef %0, i32 noundef 6)
  switch i16 %40, label %64 [
    i16 -32768, label %60
    i16 128, label %60
  ]

41:                                               ; preds = %4, %4
  %42 = tail call zeroext i1 @tvb_bytes_exist(ptr noundef %0, i32 noundef 4, i32 noundef 1)
  br i1 %42, label %43, label %64

43:                                               ; preds = %41
  %44 = tail call zeroext i8 @tvb_get_uint8(ptr noundef %0, i32 noundef 4)
  %.not = icmp eq i8 %44, 4
  br i1 %.not, label %45, label %64

45:                                               ; preds = %43
  %46 = icmp eq i8 %5, 0
  br i1 %46, label %49, label %47

47:                                               ; preds = %45
  %48 = icmp eq i8 %6, 0
  br i1 %48, label %49, label %64

49:                                               ; preds = %47, %45
  %.sink62 = phi i32 [ 0, %45 ], [ -2147483648, %47 ]
  %50 = tail call zeroext i16 @tvb_get_uint16(ptr noundef %0, i32 noundef 0, i32 noundef %.sink62)
  %51 = tail call zeroext i16 @tvb_get_uint16(ptr noundef %0, i32 noundef 2, i32 noundef %.sink62)
  switch i16 %51, label %64 [
    i16 0, label %52
    i16 -1, label %59
  ]

52:                                               ; preds = %49
  %.not57 = icmp eq i16 %50, 24
  br i1 %.not57, label %53, label %64

53:                                               ; preds = %52
  %54 = tail call zeroext i1 @tvb_bytes_exist(ptr noundef %0, i32 noundef 7, i32 noundef 2)
  br i1 %54, label %55, label %64

55:                                               ; preds = %53
  %56 = tail call zeroext i8 @tvb_get_uint8(ptr noundef %0, i32 noundef 7)
  %57 = and i8 %56, 3
  %58 = icmp eq i8 %57, 3
  br i1 %58, label %64, label %60

59:                                               ; preds = %49
  %.not56 = icmp eq i16 %50, 24
  br i1 %.not56, label %60, label %64

60:                                               ; preds = %39, %39, %55, %59, %20, %23, %12, %15
  %.055.shrunk = phi i8 [ 24, %59 ], [ 24, %55 ], [ %6, %39 ], [ 16, %23 ], [ 16, %20 ], [ 12, %15 ], [ 16, %12 ], [ %6, %39 ]
  %61 = zext nneg i8 %.055.shrunk to i32
  %62 = tail call i32 @tvb_reported_length(ptr noundef %0)
  %63 = icmp uge i32 %62, %61
  br label %64

64:                                               ; preds = %60, %4, %49, %59, %55, %53, %52, %47, %43, %41, %39, %26, %37, %35, %31, %29, %27, %24, %16, %23, %20, %18, %17, %8, %15, %12, %10, %9, %1
  %.0 = phi i1 [ false, %1 ], [ false, %9 ], [ false, %10 ], [ false, %12 ], [ false, %15 ], [ false, %8 ], [ false, %17 ], [ false, %18 ], [ false, %20 ], [ false, %23 ], [ false, %16 ], [ false, %24 ], [ false, %27 ], [ false, %29 ], [ false, %31 ], [ false, %35 ], [ false, %37 ], [ false, %26 ], [ false, %39 ], [ false, %41 ], [ false, %43 ], [ false, %47 ], [ false, %52 ], [ false, %53 ], [ false, %55 ], [ false, %59 ], [ false, %49 ], [ false, %4 ], [ %63, %60 ]
  ret i1 %.0
}